; Function Attrs: mustprogress nounwind uwtable
define hidden noundef zeroext i1 @_ZN16ThreadStackTrace25is_owned_monitor_on_stackEP7oopDesc(ptr nocapture noundef nonnull readonly align 8 dereferenceable(32) %0, ptr noundef readnone %1) local_unnamed_addr #0 align 2 {
  %3 = getelementptr inbounds i8, ptr %0, i64 8
  %4 = load i32, ptr %3, align 8
  %5 = icmp sgt i32 %4, 0
  br i1 %5, label %.lr.ph21, label %._crit_edge22

.lr.ph21:                                         ; preds = %2
  %6 = getelementptr inbounds i8, ptr %0, i64 16
  %wide.trip.count26 = zext nneg i32 %4 to i64
  br label %7

7:                                                ; preds = %.lr.ph21, %_ZNK9OopHandle7resolveEv.exit._crit_edge
  %indvars.iv24 = phi i64 [ 0, %.lr.ph21 ], [ %indvars.iv.next25, %_ZNK9OopHandle7resolveEv.exit._crit_edge ]
  %.019 = phi i1 [ false, %.lr.ph21 ], [ %.1, %_ZNK9OopHandle7resolveEv.exit._crit_edge ]
  %8 = load ptr, ptr %6, align 8
  %9 = getelementptr inbounds i8, ptr %8, i64 8
  %10 = load ptr, ptr %9, align 8
  %11 = getelementptr inbounds ptr, ptr %10, i64 %indvars.iv24
  %12 = load ptr, ptr %11, align 8
  %13 = getelementptr inbounds i8, ptr %12, i64 16
  %14 = load ptr, ptr %13, align 8
  %.not.i = icmp eq ptr %14, null
  br i1 %.not.i, label %_ZNK9OopHandle7resolveEv.exit._crit_edge, label %_ZN14StackFrameInfo19num_locked_monitorsEv.exit

_ZN14StackFrameInfo19num_locked_monitorsEv.exit:  ; preds = %7
  %15 = load i32, ptr %14, align 4
  %16 = icmp sgt i32 %15, 0
  br i1 %16, label %.lr.ph, label %_ZNK9OopHandle7resolveEv.exit._crit_edge

.lr.ph:                                           ; preds = %_ZN14StackFrameInfo19num_locked_monitorsEv.exit
  %17 = getelementptr inbounds i8, ptr %14, i64 8
  %wide.trip.count = zext nneg i32 %15 to i64
  br label %19

18:                                               ; preds = %_ZNK9OopHandle7resolveEv.exit
  %indvars.iv.next = add nuw nsw i64 %indvars.iv, 1
  %exitcond.not = icmp eq i64 %indvars.iv.next, %wide.trip.count
  br i1 %exitcond.not, label %_ZNK9OopHandle7resolveEv.exit._crit_edge, label %19, !llvm.loop !29

19:                                               ; preds = %.lr.ph, %18
  %indvars.iv = phi i64 [ 0, %.lr.ph ], [ %indvars.iv.next, %18 ]
  %20 = load ptr, ptr %17, align 8
  %21 = getelementptr inbounds %class.OopHandle, ptr %20, i64 %indvars.iv
  %22 = load ptr, ptr %21, align 8
  %23 = icmp eq ptr %22, null
  br i1 %23, label %_ZNK9OopHandle7resolveEv.exit, label %24

24:                                               ; preds = %19
  %25 = load ptr, ptr @_ZN14AccessInternal15RuntimeDispatchILm548932EP7oopDescLNS_11BarrierTypeE2EE10_load_funcE, align 8
  %26 = tail call noundef ptr %25(ptr noundef nonnull %22) #12
  br label %_ZNK9OopHandle7resolveEv.exit

_ZNK9OopHandle7resolveEv.exit:                    ; preds = %19, %24
  %27 = phi ptr [ %26, %24 ], [ null, %19 ]
  %28 = icmp eq ptr %27, %1
  br i1 %28, label %_ZNK9OopHandle7resolveEv.exit._crit_edge, label %18

_ZNK9OopHandle7resolveEv.exit._crit_edge:         ; preds = %18, %_ZNK9OopHandle7resolveEv.exit, %7, %_ZN14StackFrameInfo19num_locked_monitorsEv.exit
  %.1 = phi i1 [ %.019, %_ZN14StackFrameInfo19num_locked_monitorsEv.exit ], [ %.019, %7 ], [ true, %_ZNK9OopHandle7resolveEv.exit ], [ %.019, %18 ]
  %indvars.iv.next25 = add nuw nsw i64 %indvars.iv24, 1
  %exitcond27.not = icmp eq i64 %indvars.iv.next25, %wide.trip.count26
  br i1 %exitcond27.not, label %._crit_edge22, label %7, !llvm.loop !30

._crit_edge22:                                    ; preds = %_ZNK9OopHandle7resolveEv.exit._crit_edge, %2
  %.0.lcssa = phi i1 [ false, %2 ], [ %.1, %_ZNK9OopHandle7resolveEv.exit._crit_edge ]
  ret i1 %.0.lcssa
}